target datalayout = "e-m:e-p270:32:32-p271:32:32-p272:64:64-i64:64-i128:128-f80:128-n8:16:32:64-S128"
target triple = "x86_64-unknown-linux-gnu"

%"class.pugi::xpath_node_set" = type { i32, [1 x %"class.pugi::xpath_node"], ptr, ptr }
%"class.pugi::xpath_node" = type { %"class.pugi::xml_node", %"class.pugi::xml_attribute" }
%"class.pugi::xml_node" = type { ptr }
%"class.pugi::xml_attribute" = type { ptr }
%"struct.pugi::xpath_parse_result" = type { ptr, i64 }
%"class.pugi::xpath_query" = type { ptr, %"struct.pugi::xpath_parse_result" }

@_ZN4pugi10xpath_nodeC1ERKNS_8xml_nodeE = unnamed_addr alias void (ptr, ptr), ptr @_ZN4pugi10xpath_nodeC2ERKNS_8xml_nodeE
@_ZN4pugi11xpath_queryC1EPKcPNS_18xpath_variable_setE = unnamed_addr alias void (ptr, ptr, ptr), ptr @_ZN4pugi11xpath_queryC2EPKcPNS_18xpath_variable_setE
@_ZN4pugi11xpath_queryD1Ev = unnamed_addr alias void (ptr), ptr @_ZN4pugi11xpath_queryD2Ev

; Function Attrs: mustprogress uwtable
define void @_ZNK4pugi8xml_node12select_nodesEPKcPNS_18xpath_variable_setE(ptr noalias sret(%"class.pugi::xpath_node_set") align 8 %agg.result, ptr noundef nonnull align 8 dereferenceable(8) %this, ptr noundef %query, ptr noundef %variables) #2 align 2 personality ptr @__gxx_personality_v0 {
entry:
  %result.ptr = alloca ptr, align 8
  %this.addr = alloca ptr, align 8
  %query.addr = alloca ptr, align 8
  %variables.addr = alloca ptr, align 8
  %q = alloca %"class.pugi::xpath_query", align 8
  %ref.tmp = alloca %"class.pugi::xpath_node", align 8
  %exn.slot = alloca ptr, align 8
  %ehselector.slot = alloca i32, align 4
  store ptr %agg.result, ptr %result.ptr, align 8
  store ptr %this, ptr %this.addr, align 8
  store ptr %query, ptr %query.addr, align 8
  store ptr %variables, ptr %variables.addr, align 8
  %this1 = load ptr, ptr %this.addr, align 8
  %0 = load ptr, ptr %query.addr, align 8
  %1 = load ptr, ptr %variables.addr, align 8
  call void @_ZN4pugi11xpath_queryC1EPKcPNS_18xpath_variable_setE(ptr noundef nonnull align 8 dereferenceable(24) %q, ptr noundef %0, ptr noundef %1)
  invoke void @_ZN4pugi10xpath_nodeC1ERKNS_8xml_nodeE(ptr noundef nonnull align 8 dereferenceable(16) %ref.tmp, ptr noundef nonnull align 8 dereferenceable(8) %this1)
          to label %invoke.cont unwind label %lpad

invoke.cont:                                      ; preds = %entry
  invoke void @_ZNK4pugi11xpath_query17evaluate_node_setERKNS_10xpath_nodeE(ptr sret(%"class.pugi::xpath_node_set") align 8 %agg.result, ptr noundef nonnull align 8 dereferenceable(24) %q, ptr noundef nonnull align 8 dereferenceable(16) %ref.tmp)
          to label %invoke.cont2 unwind label %lpad

invoke.cont2:                                     ; preds = %invoke.cont
  call void @_ZN4pugi11xpath_queryD1Ev(ptr noundef nonnull align 8 dereferenceable(24) %q) #9
  ret void

lpad:                                             ; preds = %invoke.cont, %entry
  %2 = landingpad { ptr, i32 }
          cleanup
  %3 = extractvalue { ptr, i32 } %2, 0
  store ptr %3, ptr %exn.slot, align 8
  %4 = extractvalue { ptr, i32 } %2, 1
  store i32 %4, ptr %ehselector.slot, align 4
  call void @_ZN4pugi11xpath_queryD1Ev(ptr noundef nonnull align 8 dereferenceable(24) %q) #9
  br label %eh.resume

eh.resume:                                        ; preds = %lpad
  %exn = load ptr, ptr %exn.slot, align 8
  %sel = load i32, ptr %ehselector.slot, align 4
  %lpad.val = insertvalue { ptr, i32 } poison, ptr %exn, 0
  %lpad.val3 = insertvalue { ptr, i32 } %lpad.val, i32 %sel, 1
  resume { ptr, i32 } %lpad.val3
}