; Function Attrs: mustprogress uwtable
define void @_ZNK4pugi8xml_node12select_nodesEPKcPNS_18xpath_variable_setE(ptr noalias sret(%"class.pugi::xpath_node_set") align 8 %agg.result, ptr noundef nonnull align 8 dereferenceable(8) %this, ptr noundef %query, ptr noundef %variables) local_unnamed_addr #6 align 2 personality ptr @__gxx_personality_v0 {
entry:
  %q = alloca %"class.pugi::xpath_query", align 8
  %ref.tmp = alloca %"class.pugi::xpath_node", align 8
  call void @_ZN4pugi11xpath_queryC1EPKcPNS_18xpath_variable_setE(ptr noundef nonnull align 8 dereferenceable(24) %q, ptr noundef %query, ptr noundef %variables)
  invoke void @_ZN4pugi10xpath_nodeC1ERKNS_8xml_nodeE(ptr noundef nonnull align 8 dereferenceable(16) %ref.tmp, ptr noundef nonnull align 8 dereferenceable(8) %this)
          to label %invoke.cont unwind label %lpad

invoke.cont:                                      ; preds = %entry
  invoke void @_ZNK4pugi11xpath_query17evaluate_node_setERKNS_10xpath_nodeE(ptr sret(%"class.pugi::xpath_node_set") align 8 %agg.result, ptr noundef nonnull align 8 dereferenceable(24) %q, ptr noundef nonnull align 8 dereferenceable(16) %ref.tmp)
          to label %invoke.cont2 unwind label %lpad

invoke.cont2:                                     ; preds = %invoke.cont
  call void @_ZN4pugi11xpath_queryD1Ev(ptr noundef nonnull align 8 dereferenceable(24) %q) #42
  ret void

lpad:                                             ; preds = %invoke.cont, %entry
  %0 = landingpad { ptr, i32 }
          cleanup
  call void @_ZN4pugi11xpath_queryD1Ev(ptr noundef nonnull align 8 dereferenceable(24) %q) #42
  resume { ptr, i32 } %0
}